target datalayout = "e-m:e-p270:32:32-p271:32:32-p272:64:64-i64:64-i128:128-f80:128-n8:16:32:64-S128"
target triple = "x86_64-pc-linux-gnu"

%struct.H5C_class_t = type { i32, ptr, i32, i32, ptr, ptr, ptr, ptr, ptr, ptr, ptr, ptr, ptr, ptr }
%struct.H5SM_index_header_t = type { i32, i64, i64, i64, i64, i32, i64, i64, i64 }
%struct.H5SM_list_cache_ud_t = type { ptr, ptr }

@H5SM_init_g = global i8 0, align 1
@H5_libterm_g = external global i8, align 1
@.str.4 = private unnamed_addr constant [98 x i8] c"generated/home/dtcxzyw/WorkSpace/Projects/compilers/llvm-opt-benchmark/bench/hdf5/hdf5/src/H5SM.c\00", align 1
@H5E_SOHM_g = external global i64, align 8
@H5E_CANTINIT_g = external global i64, align 8
@H5E_CANTPROTECT_g = external global i64, align 8
@H5E_CANTUNPROTECT_g = external global i64, align 8
@H5E_CANTDELETE_g = external global i64, align 8
@H5AC_SOHM_LIST = external constant [1 x %struct.H5C_class_t], align 16
@.str.116 = private unnamed_addr constant [24 x i8] c"unable to delete B-tree\00", align 1
@__func__.H5SM__convert_btree_to_list = private unnamed_addr constant [28 x i8] c"H5SM__convert_btree_to_list\00", align 1
@.str.122 = private unnamed_addr constant [37 x i8] c"unable to create shared message list\00", align 1
@.str.123 = private unnamed_addr constant [31 x i8] c"unable to load SOHM list index\00", align 1
@.str.124 = private unnamed_addr constant [31 x i8] c"unable to unprotect SOHM index\00", align 1

; Function Attrs: nounwind uwtable
define internal i32 @H5SM__convert_btree_to_list(ptr noundef %0, ptr noundef %1) #0 {
  %3 = alloca ptr, align 8
  %4 = alloca ptr, align 8
  %5 = alloca ptr, align 8
  %6 = alloca %struct.H5SM_list_cache_ud_t, align 8
  %7 = alloca i64, align 8
  %8 = alloca i32, align 4
  %9 = alloca i8, align 1
  store ptr %0, ptr %3, align 8, !tbaa !3
  store ptr %1, ptr %4, align 8, !tbaa !57
  call void @llvm.lifetime.start.p0(i64 8, ptr %5) #8
  store ptr null, ptr %5, align 8, !tbaa !57
  call void @llvm.lifetime.start.p0(i64 16, ptr %6) #8
  call void @llvm.lifetime.start.p0(i64 8, ptr %7) #8
  call void @llvm.lifetime.start.p0(i64 4, ptr %8) #8
  store i32 0, ptr %8, align 4, !tbaa !14
  call void @llvm.lifetime.start.p0(i64 1, ptr %9) #8
  store i8 0, ptr %9, align 1, !tbaa !18
  %10 = load i8, ptr @H5SM_init_g, align 1, !tbaa !18, !range !20, !noundef !21
  %11 = trunc i8 %10 to i1
  br i1 %11, label %16, label %12

12:                                               ; preds = %2
  %13 = load i8, ptr @H5_libterm_g, align 1, !tbaa !18, !range !20, !noundef !21
  %14 = trunc i8 %13 to i1
  %15 = xor i1 %14, true
  br label %16

16:                                               ; preds = %12, %2
  %17 = phi i1 [ true, %2 ], [ %15, %12 ]
  %18 = xor i1 %17, true
  %19 = xor i1 %18, true
  %20 = zext i1 %19 to i32
  %21 = sext i32 %20 to i64
  %22 = call i64 @llvm.expect.i64(i64 %21, i64 1)
  %23 = icmp ne i64 %22, 0
  br i1 %23, label %24, label %142

24:                                               ; preds = %16
  %25 = load ptr, ptr %4, align 8, !tbaa !57
  %26 = getelementptr inbounds nuw %struct.H5SM_index_header_t, ptr %25, i32 0, i32 6
  %27 = load i64, ptr %26, align 8, !tbaa !40
  store i64 %27, ptr %7, align 8, !tbaa !16
  %28 = load ptr, ptr %4, align 8, !tbaa !57
  %29 = getelementptr inbounds nuw %struct.H5SM_index_header_t, ptr %28, i32 0, i32 4
  store i64 0, ptr %29, align 8, !tbaa !42
  %30 = load ptr, ptr %4, align 8, !tbaa !57
  %31 = getelementptr inbounds nuw %struct.H5SM_index_header_t, ptr %30, i32 0, i32 5
  store i32 0, ptr %31, align 8, !tbaa !43
  %32 = load ptr, ptr %3, align 8, !tbaa !3
  %33 = load ptr, ptr %4, align 8, !tbaa !57
  %34 = call i64 @H5SM__create_list(ptr noundef %32, ptr noundef %33)
  %35 = load ptr, ptr %4, align 8, !tbaa !57
  %36 = getelementptr inbounds nuw %struct.H5SM_index_header_t, ptr %35, i32 0, i32 6
  store i64 %34, ptr %36, align 8, !tbaa !40
  %37 = icmp eq i64 -1, %34
  br i1 %37, label %38, label %57

38:                                               ; preds = %24
  br label %39

39:                                               ; preds = %38
  br label %40

40:                                               ; preds = %39
  br label %41

41:                                               ; preds = %40
  %42 = load i64, ptr @H5E_SOHM_g, align 8, !tbaa !16
  %43 = load i64, ptr @H5E_CANTINIT_g, align 8, !tbaa !16
  %44 = call i32 (ptr, ptr, i32, i64, i64, ptr, ...) @H5E_printf_stack(ptr noundef @.str.4, ptr noundef @__func__.H5SM__convert_btree_to_list, i32 noundef 844, i64 noundef %42, i64 noundef %43, ptr noundef @.str.122)
  br label %45

45:                                               ; preds = %41
  br label %46

46:                                               ; preds = %45
  store i8 1, ptr %9, align 1, !tbaa !18
  %47 = load i8, ptr %9, align 1, !tbaa !18, !range !20, !noundef !21
  %48 = trunc i8 %47 to i1
  %49 = zext i1 %48 to i8
  store i8 %49, ptr %9, align 1, !tbaa !18
  br label %50

50:                                               ; preds = %46
  br label %51

51:                                               ; preds = %50
  br label %52

52:                                               ; preds = %51
  store i32 -1, ptr %8, align 4, !tbaa !14
  br label %114

53:                                               ; No predecessors!
  br label %54

54:                                               ; preds = %53
  br label %55

55:                                               ; preds = %54
  br label %56

56:                                               ; preds = %55
  br label %57

57:                                               ; preds = %56, %24
  %58 = load ptr, ptr %3, align 8, !tbaa !3
  %59 = getelementptr inbounds nuw %struct.H5SM_list_cache_ud_t, ptr %6, i32 0, i32 0
  store ptr %58, ptr %59, align 8, !tbaa !94
  %60 = load ptr, ptr %4, align 8, !tbaa !57
  %61 = getelementptr inbounds nuw %struct.H5SM_list_cache_ud_t, ptr %6, i32 0, i32 1
  store ptr %60, ptr %61, align 8, !tbaa !96
  %62 = load ptr, ptr %3, align 8, !tbaa !3
  %63 = load ptr, ptr %4, align 8, !tbaa !57
  %64 = getelementptr inbounds nuw %struct.H5SM_index_header_t, ptr %63, i32 0, i32 6
  %65 = load i64, ptr %64, align 8, !tbaa !40
  %66 = call ptr @H5AC_protect(ptr noundef %62, ptr noundef @H5AC_SOHM_LIST, i64 noundef %65, ptr noundef %6, i32 noundef 0)
  store ptr %66, ptr %5, align 8, !tbaa !57
  %67 = icmp eq ptr null, %66
  br i1 %67, label %68, label %87

68:                                               ; preds = %57
  br label %69

69:                                               ; preds = %68
  br label %70

70:                                               ; preds = %69
  br label %71

71:                                               ; preds = %70
  %72 = load i64, ptr @H5E_SOHM_g, align 8, !tbaa !16
  %73 = load i64, ptr @H5E_CANTPROTECT_g, align 8, !tbaa !16
  %74 = call i32 (ptr, ptr, i32, i64, i64, ptr, ...) @H5E_printf_stack(ptr noundef @.str.4, ptr noundef @__func__.H5SM__convert_btree_to_list, i32 noundef 853, i64 noundef %72, i64 noundef %73, ptr noundef @.str.123)
  br label %75

75:                                               ; preds = %71
  br label %76

76:                                               ; preds = %75
  store i8 1, ptr %9, align 1, !tbaa !18
  %77 = load i8, ptr %9, align 1, !tbaa !18, !range !20, !noundef !21
  %78 = trunc i8 %77 to i1
  %79 = zext i1 %78 to i8
  store i8 %79, ptr %9, align 1, !tbaa !18
  br label %80

80:                                               ; preds = %76
  br label %81

81:                                               ; preds = %80
  br label %82

82:                                               ; preds = %81
  store i32 -1, ptr %8, align 4, !tbaa !14
  br label %114

83:                                               ; No predecessors!
  br label %84

84:                                               ; preds = %83
  br label %85

85:                                               ; preds = %84
  br label %86

86:                                               ; preds = %85
  br label %87

87:                                               ; preds = %86, %57
  %88 = load ptr, ptr %3, align 8, !tbaa !3
  %89 = load i64, ptr %7, align 8, !tbaa !16
  %90 = load ptr, ptr %3, align 8, !tbaa !3
  %91 = load ptr, ptr %5, align 8, !tbaa !57
  %92 = call i32 @H5B2_delete(ptr noundef %88, i64 noundef %89, ptr noundef %90, ptr noundef @H5SM__bt2_convert_to_list_op, ptr noundef %91)
  %93 = icmp slt i32 %92, 0
  br i1 %93, label %94, label %113

94:                                               ; preds = %87
  br label %95

95:                                               ; preds = %94
  br label %96

96:                                               ; preds = %95
  br label %97

97:                                               ; preds = %96
  %98 = load i64, ptr @H5E_SOHM_g, align 8, !tbaa !16
  %99 = load i64, ptr @H5E_CANTDELETE_g, align 8, !tbaa !16
  %100 = call i32 (ptr, ptr, i32, i64, i64, ptr, ...) @H5E_printf_stack(ptr noundef @.str.4, ptr noundef @__func__.H5SM__convert_btree_to_list, i32 noundef 859, i64 noundef %98, i64 noundef %99, ptr noundef @.str.116)
  br label %101

101:                                              ; preds = %97
  br label %102

102:                                              ; preds = %101
  store i8 1, ptr %9, align 1, !tbaa !18
  %103 = load i8, ptr %9, align 1, !tbaa !18, !range !20, !noundef !21
  %104 = trunc i8 %103 to i1
  %105 = zext i1 %104 to i8
  store i8 %105, ptr %9, align 1, !tbaa !18
  br label %106

106:                                              ; preds = %102
  br label %107

107:                                              ; preds = %106
  br label %108

108:                                              ; preds = %107
  store i32 -1, ptr %8, align 4, !tbaa !14
  br label %114

109:                                              ; No predecessors!
  br label %110

110:                                              ; preds = %109
  br label %111

111:                                              ; preds = %110
  br label %112

112:                                              ; preds = %111
  br label %113

113:                                              ; preds = %112, %87
  br label %114

114:                                              ; preds = %113, %108, %82, %52
  %115 = load ptr, ptr %5, align 8, !tbaa !57
  %116 = icmp ne ptr %115, null
  br i1 %116, label %117, label %141

117:                                              ; preds = %114
  %118 = load ptr, ptr %3, align 8, !tbaa !3
  %119 = load ptr, ptr %4, align 8, !tbaa !57
  %120 = getelementptr inbounds nuw %struct.H5SM_index_header_t, ptr %119, i32 0, i32 6
  %121 = load i64, ptr %120, align 8, !tbaa !40
  %122 = load ptr, ptr %5, align 8, !tbaa !57
  %123 = call i32 @H5AC_unprotect(ptr noundef %118, ptr noundef @H5AC_SOHM_LIST, i64 noundef %121, ptr noundef %122, i32 noundef 2)
  %124 = icmp slt i32 %123, 0
  br i1 %124, label %125, label %141

125:                                              ; preds = %117
  br label %126

126:                                              ; preds = %125
  br label %127

127:                                              ; preds = %126
  br label %128

128:                                              ; preds = %127
  %129 = load i64, ptr @H5E_SOHM_g, align 8, !tbaa !16
  %130 = load i64, ptr @H5E_CANTUNPROTECT_g, align 8, !tbaa !16
  %131 = call i32 (ptr, ptr, i32, i64, i64, ptr, ...) @H5E_printf_stack(ptr noundef @.str.4, ptr noundef @__func__.H5SM__convert_btree_to_list, i32 noundef 864, i64 noundef %129, i64 noundef %130, ptr noundef @.str.124)
  br label %132

132:                                              ; preds = %128
  br label %133

133:                                              ; preds = %132
  store i8 1, ptr %9, align 1, !tbaa !18
  %134 = load i8, ptr %9, align 1, !tbaa !18, !range !20, !noundef !21
  %135 = trunc i8 %134 to i1
  %136 = zext i1 %135 to i8
  store i8 %136, ptr %9, align 1, !tbaa !18
  br label %137

137:                                              ; preds = %133
  br label %138

138:                                              ; preds = %137
  store i32 -1, ptr %8, align 4, !tbaa !14
  br label %139

139:                                              ; preds = %138
  br label %140

140:                                              ; preds = %139
  br label %141

141:                                              ; preds = %140, %117, %114
  br label %142

142:                                              ; preds = %141, %16
  %143 = load i32, ptr %8, align 4, !tbaa !14
  call void @llvm.lifetime.end.p0(i64 1, ptr %9) #8
  call void @llvm.lifetime.end.p0(i64 4, ptr %8) #8
  call void @llvm.lifetime.end.p0(i64 8, ptr %7) #8
  call void @llvm.lifetime.end.p0(i64 16, ptr %6) #8
  call void @llvm.lifetime.end.p0(i64 8, ptr %5) #8
  ret i32 %143
}