; Function Attrs: nounwind uwtable
define internal fastcc range(i32 -1, 1) i32 @H5SM__convert_btree_to_list(ptr noundef %0, ptr noundef %1) unnamed_addr #0 {
  %3 = alloca %struct.H5SM_list_cache_ud_t, align 8
  call void @llvm.lifetime.start.p0(i64 16, ptr nonnull %3) #11
  %4 = load i8, ptr @H5SM_init_g, align 1, !tbaa !9, !range !11, !noundef !12
  %5 = trunc nuw i8 %4 to i1
  %6 = load i8, ptr @H5_libterm_g, align 1, !range !11
  %7 = trunc nuw i8 %6 to i1
  %8 = xor i1 %7, true
  %9 = select i1 %5, i1 true, i1 %8
  br i1 %9, label %10, label %.thread, !prof !13

10:                                               ; preds = %2
  %11 = getelementptr inbounds nuw i8, ptr %1, i64 48
  %12 = load i64, ptr %11, align 8, !tbaa !51
  %13 = getelementptr inbounds nuw i8, ptr %1, i64 32
  store i64 0, ptr %13, align 8, !tbaa !34
  %14 = getelementptr inbounds nuw i8, ptr %1, i64 40
  store i32 0, ptr %14, align 8, !tbaa !35
  %15 = tail call fastcc i64 @H5SM__create_list(ptr noundef %0, ptr noundef %1)
  store i64 %15, ptr %11, align 8, !tbaa !51
  %16 = icmp eq i64 %15, -1
  br i1 %16, label %17, label %21

17:                                               ; preds = %10
  %18 = load i64, ptr @H5E_SOHM_g, align 8, !tbaa !7
  %19 = load i64, ptr @H5E_CANTINIT_g, align 8, !tbaa !7
  %20 = tail call i32 (ptr, ptr, i32, i64, i64, ptr, ...) @H5E_printf_stack(ptr noundef nonnull @.str.4, ptr noundef nonnull @__func__.H5SM__convert_btree_to_list, i32 noundef 844, i64 noundef %18, i64 noundef %19, ptr noundef nonnull @.str.122) #11
  br label %.thread

21:                                               ; preds = %10
  store ptr %0, ptr %3, align 8, !tbaa !81
  %22 = getelementptr inbounds nuw i8, ptr %3, i64 8
  store ptr %1, ptr %22, align 8, !tbaa !83
  %23 = call ptr @H5AC_protect(ptr noundef %0, ptr noundef nonnull @H5AC_SOHM_LIST, i64 noundef %15, ptr noundef nonnull %3, i32 noundef 0) #11
  %24 = icmp eq ptr %23, null
  br i1 %24, label %25, label %29

25:                                               ; preds = %21
  %26 = load i64, ptr @H5E_SOHM_g, align 8, !tbaa !7
  %27 = load i64, ptr @H5E_CANTPROTECT_g, align 8, !tbaa !7
  %28 = call i32 (ptr, ptr, i32, i64, i64, ptr, ...) @H5E_printf_stack(ptr noundef nonnull @.str.4, ptr noundef nonnull @__func__.H5SM__convert_btree_to_list, i32 noundef 853, i64 noundef %26, i64 noundef %27, ptr noundef nonnull @.str.123) #11
  br label %.thread

29:                                               ; preds = %21
  %30 = call i32 @H5B2_delete(ptr noundef %0, i64 noundef %12, ptr noundef %0, ptr noundef nonnull @H5SM__bt2_convert_to_list_op, ptr noundef nonnull %23) #11
  %31 = icmp slt i32 %30, 0
  br i1 %31, label %32, label %36

32:                                               ; preds = %29
  %33 = load i64, ptr @H5E_SOHM_g, align 8, !tbaa !7
  %34 = load i64, ptr @H5E_CANTDELETE_g, align 8, !tbaa !7
  %35 = call i32 (ptr, ptr, i32, i64, i64, ptr, ...) @H5E_printf_stack(ptr noundef nonnull @.str.4, ptr noundef nonnull @__func__.H5SM__convert_btree_to_list, i32 noundef 859, i64 noundef %33, i64 noundef %34, ptr noundef nonnull @.str.116) #11
  br label %36

36:                                               ; preds = %32, %29
  %.1 = phi i32 [ -1, %32 ], [ 0, %29 ]
  %37 = load i64, ptr %11, align 8, !tbaa !51
  %38 = call i32 @H5AC_unprotect(ptr noundef %0, ptr noundef nonnull @H5AC_SOHM_LIST, i64 noundef %37, ptr noundef nonnull %23, i32 noundef 2) #11
  %39 = icmp slt i32 %38, 0
  br i1 %39, label %40, label %.thread

40:                                               ; preds = %36
  %41 = load i64, ptr @H5E_SOHM_g, align 8, !tbaa !7
  %42 = load i64, ptr @H5E_CANTUNPROTECT_g, align 8, !tbaa !7
  %43 = call i32 (ptr, ptr, i32, i64, i64, ptr, ...) @H5E_printf_stack(ptr noundef nonnull @.str.4, ptr noundef nonnull @__func__.H5SM__convert_btree_to_list, i32 noundef 864, i64 noundef %41, i64 noundef %42, ptr noundef nonnull @.str.124) #11
  br label %.thread

.thread:                                          ; preds = %25, %17, %36, %40, %2
  %.0 = phi i32 [ -1, %40 ], [ %.1, %36 ], [ 0, %2 ], [ -1, %17 ], [ -1, %25 ]
  call void @llvm.lifetime.end.p0(i64 16, ptr nonnull %3) #11
  ret i32 %.0
}